; Function Attrs: nounwind uwtable
define nonnull ptr @l___private_Lean_Meta_Tactic_Simp_BuiltinSimprocs_Fin_0__Fin_decEqValue____x40_Lean_Meta_Tactic_Simp_BuiltinSimprocs_Fin___hyg_27____boxed(ptr noundef %0, ptr noundef %1) local_unnamed_addr #1 {
  %3 = getelementptr inbounds nuw i8, ptr %0, i64 8
  %4 = load ptr, ptr %3, align 8, !tbaa !5
  %5 = getelementptr inbounds nuw i8, ptr %0, i64 16
  %6 = load ptr, ptr %5, align 8, !tbaa !5
  %7 = getelementptr inbounds nuw i8, ptr %1, i64 8
  %8 = load ptr, ptr %7, align 8, !tbaa !5
  %9 = getelementptr inbounds nuw i8, ptr %1, i64 16
  %10 = load ptr, ptr %9, align 8, !tbaa !5
  %11 = ptrtoint ptr %4 to i64
  %12 = and i64 %11, 1
  %13 = icmp ne i64 %12, 0
  %14 = ptrtoint ptr %8 to i64
  %15 = and i64 %14, 1
  %16 = icmp ne i64 %15, 0
  %or.cond.i = select i1 %13, i1 %16, i1 false
  br i1 %or.cond.i, label %17, label %lean_nat_eq.exit.i, !prof !9

17:                                               ; preds = %2
  %18 = icmp eq ptr %4, %8
  br i1 %18, label %20, label %l___private_Lean_Meta_Tactic_Simp_BuiltinSimprocs_Fin_0__Fin_decEqValue____x40_Lean_Meta_Tactic_Simp_BuiltinSimprocs_Fin___hyg_27_.exit

lean_nat_eq.exit.i:                               ; preds = %2
  %19 = tail call zeroext i1 @lean_nat_big_eq(ptr noundef %4, ptr noundef %8) #4
  br i1 %19, label %20, label %l___private_Lean_Meta_Tactic_Simp_BuiltinSimprocs_Fin_0__Fin_decEqValue____x40_Lean_Meta_Tactic_Simp_BuiltinSimprocs_Fin___hyg_27_.exit

20:                                               ; preds = %lean_nat_eq.exit.i, %17
  %21 = ptrtoint ptr %6 to i64
  %22 = and i64 %21, 1
  %23 = icmp ne i64 %22, 0
  %24 = ptrtoint ptr %10 to i64
  %25 = and i64 %24, 1
  %26 = icmp ne i64 %25, 0
  %or.cond18.i = select i1 %23, i1 %26, i1 false
  br i1 %or.cond18.i, label %27, label %.critedge.i11.i, !prof !9

27:                                               ; preds = %20
  %28 = icmp eq ptr %6, %10
  br label %lean_nat_eq.exit13.i

.critedge.i11.i:                                  ; preds = %20
  %29 = tail call zeroext i1 @lean_nat_big_eq(ptr noundef %6, ptr noundef %10) #4
  br label %lean_nat_eq.exit13.i

lean_nat_eq.exit13.i:                             ; preds = %.critedge.i11.i, %27
  %.0.i12.i = phi i1 [ %28, %27 ], [ %29, %.critedge.i11.i ]
  %30 = select i1 %.0.i12.i, i64 3, i64 1
  br label %l___private_Lean_Meta_Tactic_Simp_BuiltinSimprocs_Fin_0__Fin_decEqValue____x40_Lean_Meta_Tactic_Simp_BuiltinSimprocs_Fin___hyg_27_.exit

l___private_Lean_Meta_Tactic_Simp_BuiltinSimprocs_Fin_0__Fin_decEqValue____x40_Lean_Meta_Tactic_Simp_BuiltinSimprocs_Fin___hyg_27_.exit: ; preds = %17, %lean_nat_eq.exit.i, %lean_nat_eq.exit13.i
  %.0.i = phi i64 [ %30, %lean_nat_eq.exit13.i ], [ 1, %lean_nat_eq.exit.i ], [ 1, %17 ]
  %31 = ptrtoint ptr %1 to i64
  %32 = and i64 %31, 1
  %.not = icmp eq i64 %32, 0
  br i1 %.not, label %33, label %lean_dec.exit

33:                                               ; preds = %l___private_Lean_Meta_Tactic_Simp_BuiltinSimprocs_Fin_0__Fin_decEqValue____x40_Lean_Meta_Tactic_Simp_BuiltinSimprocs_Fin___hyg_27_.exit
  %34 = load i32, ptr %1, align 4, !tbaa !10
  %35 = icmp sgt i32 %34, 1
  br i1 %35, label %36, label %38, !prof !13

36:                                               ; preds = %33
  %37 = add nsw i32 %34, -1
  store i32 %37, ptr %1, align 4, !tbaa !10
  br label %lean_dec.exit

38:                                               ; preds = %33
  %.not.i6 = icmp eq i32 %34, 0
  br i1 %.not.i6, label %lean_dec.exit, label %39

39:                                               ; preds = %38
  tail call void @lean_dec_ref_cold(ptr noundef nonnull %1) #4
  br label %lean_dec.exit

lean_dec.exit:                                    ; preds = %39, %38, %36, %l___private_Lean_Meta_Tactic_Simp_BuiltinSimprocs_Fin_0__Fin_decEqValue____x40_Lean_Meta_Tactic_Simp_BuiltinSimprocs_Fin___hyg_27_.exit
  %40 = ptrtoint ptr %0 to i64
  %41 = and i64 %40, 1
  %.not8 = icmp eq i64 %41, 0
  br i1 %.not8, label %42, label %lean_dec.exit5

42:                                               ; preds = %lean_dec.exit
  %43 = load i32, ptr %0, align 4, !tbaa !10
  %44 = icmp sgt i32 %43, 1
  br i1 %44, label %45, label %47, !prof !13

45:                                               ; preds = %42
  %46 = add nsw i32 %43, -1
  store i32 %46, ptr %0, align 4, !tbaa !10
  br label %lean_dec.exit5

47:                                               ; preds = %42
  %.not.i = icmp eq i32 %43, 0
  br i1 %.not.i, label %lean_dec.exit5, label %48

48:                                               ; preds = %47
  tail call void @lean_dec_ref_cold(ptr noundef nonnull %0) #4
  br label %lean_dec.exit5

lean_dec.exit5:                                   ; preds = %48, %47, %45, %lean_dec.exit
  %49 = inttoptr i64 %.0.i to ptr
  ret ptr %49
}